target datalayout = "e-m:e-p270:32:32-p271:32:32-p272:64:64-i64:64-i128:128-f80:128-n8:16:32:64-S128"
target triple = "x86_64-pc-linux-gnu"

%struct.register_ct = type { i8, i32, ptr, ptr, ptr, ptr }
%struct._GString = type { ptr, i64, i64 }

@.str.1 = private unnamed_addr constant [1 x i8] zeroinitializer, align 1
@.str.2 = private unnamed_addr constant [6 x i8] c"%s,%s\00", align 1
@.str.3 = private unnamed_addr constant [10 x i8] c"endpoints\00", align 1

; Function Attrs: null_pointer_is_valid sspstrong uwtable
define void @dissector_endpoint_init(ptr noundef %0, ptr noundef %1) #1 {
  %3 = alloca ptr, align 8
  %4 = alloca ptr, align 8
  %5 = alloca ptr, align 8
  %6 = alloca ptr, align 8
  %7 = alloca ptr, align 8
  store ptr %0, ptr %3, align 8
  store ptr %1, ptr %4, align 8
  call void @llvm.lifetime.start.p0(i64 8, ptr %5) #16
  %8 = load ptr, ptr %4, align 8
  store ptr %8, ptr %5, align 8
  call void @llvm.lifetime.start.p0(i64 8, ptr %6) #16
  %9 = call ptr @g_string_new(ptr noundef @.str.1)
  store ptr %9, ptr %6, align 8
  call void @llvm.lifetime.start.p0(i64 8, ptr %7) #16
  store ptr null, ptr %7, align 8
  %10 = load ptr, ptr %6, align 8
  %11 = load ptr, ptr %5, align 8
  %12 = getelementptr inbounds nuw %struct.register_ct, ptr %11, i32 0, i32 1
  %13 = load i32, ptr %12, align 4
  %14 = call ptr @proto_get_protocol_filter_name(i32 noundef %13)
  call void (ptr, ptr, ...) @g_string_printf(ptr noundef %10, ptr noundef @.str.2, ptr noundef @.str.3, ptr noundef %14)
  %15 = load ptr, ptr %3, align 8
  %16 = load ptr, ptr %6, align 8
  %17 = getelementptr inbounds nuw %struct._GString, ptr %16, i32 0, i32 0
  %18 = load ptr, ptr %17, align 8
  %19 = load ptr, ptr %6, align 8
  %20 = getelementptr inbounds nuw %struct._GString, ptr %19, i32 0, i32 1
  %21 = load i64, ptr %20, align 8
  %22 = call i32 @strncmp(ptr noundef %15, ptr noundef %18, i64 noundef %21) #17
  %23 = icmp ne i32 %22, 0
  br i1 %23, label %41, label %24

24:                                               ; preds = %2
  %25 = load ptr, ptr %3, align 8
  %26 = load ptr, ptr %6, align 8
  %27 = getelementptr inbounds nuw %struct._GString, ptr %26, i32 0, i32 1
  %28 = load i64, ptr %27, align 8
  %29 = getelementptr i8, ptr %25, i64 %28
  %30 = load i8, ptr %29, align 1
  %31 = sext i8 %30 to i32
  %32 = icmp eq i32 %31, 44
  br i1 %32, label %33, label %40

33:                                               ; preds = %24
  %34 = load ptr, ptr %3, align 8
  %35 = load ptr, ptr %6, align 8
  %36 = getelementptr inbounds nuw %struct._GString, ptr %35, i32 0, i32 1
  %37 = load i64, ptr %36, align 8
  %38 = getelementptr i8, ptr %34, i64 %37
  %39 = getelementptr i8, ptr %38, i64 1
  store ptr %39, ptr %7, align 8
  br label %40

40:                                               ; preds = %33, %24
  br label %42

41:                                               ; preds = %2
  store ptr null, ptr %7, align 8
  br label %42

42:                                               ; preds = %41, %40
  %43 = load ptr, ptr %6, align 8
  %44 = call ptr @g_string_free(ptr noundef %43, i32 noundef 1)
  %45 = load ptr, ptr %5, align 8
  %46 = getelementptr inbounds nuw %struct.register_ct, ptr %45, i32 0, i32 5
  %47 = load ptr, ptr %46, align 8
  %48 = icmp ne ptr %47, null
  br i1 %48, label %49, label %55

49:                                               ; preds = %42
  %50 = load ptr, ptr %5, align 8
  %51 = getelementptr inbounds nuw %struct.register_ct, ptr %50, i32 0, i32 5
  %52 = load ptr, ptr %51, align 8
  %53 = load ptr, ptr %5, align 8
  %54 = load ptr, ptr %7, align 8
  call void %52(ptr noundef %53, ptr noundef %54)
  br label %55

55:                                               ; preds = %49, %42
  call void @llvm.lifetime.end.p0(i64 8, ptr %7) #16
  call void @llvm.lifetime.end.p0(i64 8, ptr %6) #16
  call void @llvm.lifetime.end.p0(i64 8, ptr %5) #16
  ret void
}

; Function Attrs: null_pointer_is_valid sspstrong uwtable
define void @dissector_hostlist_init(ptr noundef %0, ptr noundef %1) #1 {
  %3 = alloca ptr, align 8
  %4 = alloca ptr, align 8
  store ptr %0, ptr %3, align 8
  store ptr %1, ptr %4, align 8
  %5 = load ptr, ptr %3, align 8
  %6 = load ptr, ptr %4, align 8
  call void @dissector_endpoint_init(ptr noundef %5, ptr noundef %6)
  ret void
}