; Function Attrs: null_pointer_is_valid sspstrong uwtable
define void @dissector_hostlist_init(ptr noundef %0, ptr noundef %1) local_unnamed_addr #1 {
  %3 = tail call ptr @g_string_new(ptr noundef nonnull @.str.1)
  %4 = getelementptr inbounds nuw i8, ptr %1, i64 4
  %5 = load i32, ptr %4, align 4
  %6 = tail call ptr @proto_get_protocol_filter_name(i32 noundef %5)
  tail call void (ptr, ptr, ...) @g_string_printf(ptr noundef %3, ptr noundef nonnull @.str.2, ptr noundef nonnull @.str.3, ptr noundef %6)
  %7 = load ptr, ptr %3, align 8
  %8 = getelementptr inbounds nuw i8, ptr %3, i64 8
  %9 = load i64, ptr %8, align 8
  %10 = tail call i32 @strncmp(ptr noundef %0, ptr noundef %7, i64 noundef %9) #13
  %.not.i = icmp eq i32 %10, 0
  br i1 %.not.i, label %11, label %16

11:                                               ; preds = %2
  %12 = getelementptr i8, ptr %0, i64 %9
  %13 = load i8, ptr %12, align 1
  %14 = icmp eq i8 %13, 44
  %15 = getelementptr i8, ptr %12, i64 1
  %spec.select.i = select i1 %14, ptr %15, ptr null
  br label %16

16:                                               ; preds = %11, %2
  %.0.i = phi ptr [ %spec.select.i, %11 ], [ null, %2 ]
  %17 = tail call ptr @g_string_free(ptr noundef %3, i32 noundef 1)
  %18 = getelementptr inbounds nuw i8, ptr %1, i64 32
  %19 = load ptr, ptr %18, align 8
  %.not16.i = icmp eq ptr %19, null
  br i1 %.not16.i, label %dissector_endpoint_init.exit, label %20

20:                                               ; preds = %16
  tail call void %19(ptr noundef %1, ptr noundef %.0.i)
  br label %dissector_endpoint_init.exit

dissector_endpoint_init.exit:                     ; preds = %16, %20
  ret void
}